; ModuleID = 'source-C-CXX/9/807.c'
source_filename = "source-C-CXX/9/807.c"
target datalayout = "e-m:e-p270:32:32-p271:32:32-p272:64:64-i64:64-f80:128-n8:16:32:64-S128"
target triple = "x86_64-pc-linux-gnu"

%struct._IO_FILE = type { i32, i8*, i8*, i8*, i8*, i8*, i8*, i8*, i8*, i8*, i8*, i8*, %struct._IO_marker*, %struct._IO_FILE*, i32, i32, i64, i16, i8, [1 x i8], i8*, i64, %struct._IO_codecvt*, %struct._IO_wide_data*, %struct._IO_FILE*, i8*, i64, i32, [20 x i8] }
%struct._IO_marker = type opaque
%struct._IO_codecvt = type opaque
%struct._IO_wide_data = type opaque

@.str = private unnamed_addr constant [3 x i8] c"%d\00", align 1
@.str.1 = private unnamed_addr constant [4 x i8] c"%d\0A\00", align 1
@stdin = external local_unnamed_addr global %struct._IO_FILE*, align 8

; Function Attrs: nofree nosync nounwind readonly sspstrong uwtable
define dso_local i32 @lanjie(i32 %0, i32* %1, i32 %2) local_unnamed_addr #0 {
  br label %4

4:                                                ; preds = %21, %3
  %5 = phi i32 [ %0, %3 ], [ %24, %21 ]
  %6 = phi i32* [ %1, %3 ], [ %25, %21 ]
  switch i32 %5, label %21 [
    i32 1, label %7
    i32 2, label %11
  ]

7:                                                ; preds = %4
  %8 = load i32, i32* %6, align 4, !tbaa !5
  %9 = icmp sle i32 %8, %2
  %10 = zext i1 %9 to i32
  br label %26

11:                                               ; preds = %4
  %12 = load i32, i32* %6, align 4, !tbaa !5
  %13 = icmp sgt i32 %12, %2
  %14 = getelementptr inbounds i32, i32* %6, i64 1
  %15 = load i32, i32* %14, align 4, !tbaa !5
  br i1 %13, label %18, label %16

16:                                               ; preds = %11
  %17 = icmp sgt i32 %15, %12
  br i1 %17, label %20, label %26

18:                                               ; preds = %11
  %19 = icmp sgt i32 %15, %2
  br i1 %19, label %26, label %20

20:                                               ; preds = %16, %18
  br label %26

21:                                               ; preds = %4
  %22 = load i32, i32* %6, align 4, !tbaa !5
  %23 = icmp sgt i32 %22, %2
  %24 = add nsw i32 %5, -1
  %25 = getelementptr inbounds i32, i32* %6, i64 1
  br i1 %23, label %4, label %28

26:                                               ; preds = %20, %7, %16, %18, %28
  %27 = phi i32 [ %33, %28 ], [ 1, %20 ], [ %10, %7 ], [ 2, %16 ], [ 0, %18 ]
  ret i32 %27

28:                                               ; preds = %21
  %29 = tail call i32 @lanjie(i32 %24, i32* nonnull %25, i32 %22)
  %30 = add nsw i32 %29, 1
  %31 = tail call i32 @lanjie(i32 %24, i32* nonnull %25, i32 %2)
  %32 = icmp slt i32 %30, %31
  %33 = select i1 %32, i32 %31, i32 %30
  br label %26
}

; Function Attrs: nofree nounwind sspstrong uwtable
define dso_local void @main() local_unnamed_addr #1 {
  %1 = alloca [26 x i32], align 16
  %2 = alloca i32, align 4
  %3 = bitcast [26 x i32]* %1 to i8*
  call void @llvm.lifetime.start.p0i8(i64 104, i8* nonnull %3) #4
  %4 = bitcast i32* %2 to i8*
  call void @llvm.lifetime.start.p0i8(i64 4, i8* nonnull %4) #4
  %5 = call i32 (i8*, ...) @__isoc99_scanf(i8* getelementptr inbounds ([3 x i8], [3 x i8]* @.str, i64 0, i64 0), i32* nonnull %2)
  %6 = load i32, i32* %2, align 4, !tbaa !5
  %7 = icmp sgt i32 %6, 0
  br i1 %7, label %8, label %16

8:                                                ; preds = %0, %8
  %9 = phi i64 [ %12, %8 ], [ 0, %0 ]
  %10 = getelementptr inbounds [26 x i32], [26 x i32]* %1, i64 0, i64 %9
  %11 = call i32 (i8*, ...) @__isoc99_scanf(i8* getelementptr inbounds ([3 x i8], [3 x i8]* @.str, i64 0, i64 0), i32* nonnull %10)
  %12 = add nuw nsw i64 %9, 1
  %13 = load i32, i32* %2, align 4, !tbaa !5
  %14 = sext i32 %13 to i64
  %15 = icmp slt i64 %12, %14
  br i1 %15, label %8, label %16, !llvm.loop !9

16:                                               ; preds = %8, %0
  %17 = load %struct._IO_FILE*, %struct._IO_FILE** @stdin, align 8, !tbaa !11
  %18 = call i32 @getc(%struct._IO_FILE* %17) #4
  %19 = load i32, i32* %2, align 4, !tbaa !5
  %20 = getelementptr inbounds [26 x i32], [26 x i32]* %1, i64 0, i64 0
  %21 = call i32 @lanjie(i32 %19, i32* nonnull %20, i32 32767)
  %22 = call i32 (i8*, ...) @printf(i8* nonnull dereferenceable(1) getelementptr inbounds ([4 x i8], [4 x i8]* @.str.1, i64 0, i64 0), i32 %21)
  call void @llvm.lifetime.end.p0i8(i64 4, i8* nonnull %4) #4
  call void @llvm.lifetime.end.p0i8(i64 104, i8* nonnull %3) #4
  ret void
}

; Function Attrs: argmemonly mustprogress nofree nosync nounwind willreturn
declare void @llvm.lifetime.start.p0i8(i64 immarg, i8* nocapture) #2

; Function Attrs: nofree nounwind
declare noundef i32 @__isoc99_scanf(i8* nocapture noundef readonly, ...) local_unnamed_addr #3

; Function Attrs: nofree nounwind
declare noundef i32 @printf(i8* nocapture noundef readonly, ...) local_unnamed_addr #3

; Function Attrs: argmemonly mustprogress nofree nosync nounwind willreturn
declare void @llvm.lifetime.end.p0i8(i64 immarg, i8* nocapture) #2

; Function Attrs: nofree nounwind
declare noundef i32 @getc(%struct._IO_FILE* nocapture noundef) local_unnamed_addr #3


!llvm.module.flags = !{!0, !1, !2, !3}
!llvm.ident = !{!4}

!0 = !{i32 1, !"wchar_size", i32 4}
!1 = !{i32 7, !"PIC Level", i32 2}
!2 = !{i32 7, !"PIE Level", i32 2}
!3 = !{i32 7, !"uwtable", i32 1}
!4 = !{!"clang version 13.0.0"}
!5 = !{!6, !6, i64 0}
!6 = !{!"int", !7, i64 0}
!7 = !{!"omnipotent char", !8, i64 0}
!8 = !{!"Simple C/C++ TBAA"}
!9 = distinct !{!9, !10}
!10 = !{!"llvm.loop.mustprogress"}
!11 = !{!12, !12, i64 0}
!12 = !{!"any pointer", !7, i64 0}
